target datalayout = "e-m:e-p270:32:32-p271:32:32-p272:64:64-i64:64-i128:128-f80:128-n8:16:32:64-S128"
target triple = "x86_64-pc-linux-gnu"

; Function Attrs: nounwind uwtable
define internal void @maskedmin32(ptr noundef %0, ptr noundef %1, ptr noundef %2, ptr noundef %3, i32 noundef %4) #2 {
  %6 = alloca ptr, align 8
  %7 = alloca ptr, align 8
  %8 = alloca ptr, align 8
  %9 = alloca ptr, align 8
  %10 = alloca i32, align 4
  %11 = alloca ptr, align 8
  %12 = alloca ptr, align 8
  %13 = alloca ptr, align 8
  %14 = alloca ptr, align 8
  %15 = alloca i32, align 4
  store ptr %0, ptr %6, align 8, !tbaa !53
  store ptr %1, ptr %7, align 8, !tbaa !53
  store ptr %2, ptr %8, align 8, !tbaa !53
  store ptr %3, ptr %9, align 8, !tbaa !53
  store i32 %4, ptr %10, align 4, !tbaa !44
  call void @llvm.lifetime.start.p0(i64 8, ptr %11) #9
  %16 = load ptr, ptr %6, align 8, !tbaa !53
  store ptr %16, ptr %11, align 8, !tbaa !64
  call void @llvm.lifetime.start.p0(i64 8, ptr %12) #9
  %17 = load ptr, ptr %8, align 8, !tbaa !53
  store ptr %17, ptr %12, align 8, !tbaa !64
  call void @llvm.lifetime.start.p0(i64 8, ptr %13) #9
  %18 = load ptr, ptr %9, align 8, !tbaa !53
  store ptr %18, ptr %13, align 8, !tbaa !64
  call void @llvm.lifetime.start.p0(i64 8, ptr %14) #9
  %19 = load ptr, ptr %7, align 8, !tbaa !53
  store ptr %19, ptr %14, align 8, !tbaa !64
  call void @llvm.lifetime.start.p0(i64 4, ptr %15) #9
  store i32 0, ptr %15, align 4, !tbaa !44
  br label %20

20:                                               ; preds = %123, %5
  %21 = load i32, ptr %15, align 4, !tbaa !44
  %22 = load i32, ptr %10, align 4, !tbaa !44
  %23 = icmp slt i32 %21, %22
  br i1 %23, label %25, label %24

24:                                               ; preds = %20
  call void @llvm.lifetime.end.p0(i64 4, ptr %15) #9
  br label %126

25:                                               ; preds = %20
  %26 = load ptr, ptr %11, align 8, !tbaa !64
  %27 = load i32, ptr %15, align 4, !tbaa !44
  %28 = sext i32 %27 to i64
  %29 = getelementptr inbounds float, ptr %26, i64 %28
  %30 = load float, ptr %29, align 4, !tbaa !66
  %31 = load ptr, ptr %13, align 8, !tbaa !64
  %32 = load i32, ptr %15, align 4, !tbaa !44
  %33 = sext i32 %32 to i64
  %34 = getelementptr inbounds float, ptr %31, i64 %33
  %35 = load float, ptr %34, align 4, !tbaa !66
  %36 = fsub nsz float %30, %35
  %37 = fcmp nsz oge float %36, 0.000000e+00
  br i1 %37, label %38, label %50

38:                                               ; preds = %25
  %39 = load ptr, ptr %11, align 8, !tbaa !64
  %40 = load i32, ptr %15, align 4, !tbaa !44
  %41 = sext i32 %40 to i64
  %42 = getelementptr inbounds float, ptr %39, i64 %41
  %43 = load float, ptr %42, align 4, !tbaa !66
  %44 = load ptr, ptr %13, align 8, !tbaa !64
  %45 = load i32, ptr %15, align 4, !tbaa !44
  %46 = sext i32 %45 to i64
  %47 = getelementptr inbounds float, ptr %44, i64 %46
  %48 = load float, ptr %47, align 4, !tbaa !66
  %49 = fsub nsz float %43, %48
  br label %63

50:                                               ; preds = %25
  %51 = load ptr, ptr %11, align 8, !tbaa !64
  %52 = load i32, ptr %15, align 4, !tbaa !44
  %53 = sext i32 %52 to i64
  %54 = getelementptr inbounds float, ptr %51, i64 %53
  %55 = load float, ptr %54, align 4, !tbaa !66
  %56 = load ptr, ptr %13, align 8, !tbaa !64
  %57 = load i32, ptr %15, align 4, !tbaa !44
  %58 = sext i32 %57 to i64
  %59 = getelementptr inbounds float, ptr %56, i64 %58
  %60 = load float, ptr %59, align 4, !tbaa !66
  %61 = fsub nsz float %55, %60
  %62 = fneg nsz float %61
  br label %63

63:                                               ; preds = %50, %38
  %64 = phi nsz float [ %49, %38 ], [ %62, %50 ]
  %65 = load ptr, ptr %11, align 8, !tbaa !64
  %66 = load i32, ptr %15, align 4, !tbaa !44
  %67 = sext i32 %66 to i64
  %68 = getelementptr inbounds float, ptr %65, i64 %67
  %69 = load float, ptr %68, align 4, !tbaa !66
  %70 = load ptr, ptr %12, align 8, !tbaa !64
  %71 = load i32, ptr %15, align 4, !tbaa !44
  %72 = sext i32 %71 to i64
  %73 = getelementptr inbounds float, ptr %70, i64 %72
  %74 = load float, ptr %73, align 4, !tbaa !66
  %75 = fsub nsz float %69, %74
  %76 = fcmp nsz oge float %75, 0.000000e+00
  br i1 %76, label %77, label %89

77:                                               ; preds = %63
  %78 = load ptr, ptr %11, align 8, !tbaa !64
  %79 = load i32, ptr %15, align 4, !tbaa !44
  %80 = sext i32 %79 to i64
  %81 = getelementptr inbounds float, ptr %78, i64 %80
  %82 = load float, ptr %81, align 4, !tbaa !66
  %83 = load ptr, ptr %12, align 8, !tbaa !64
  %84 = load i32, ptr %15, align 4, !tbaa !44
  %85 = sext i32 %84 to i64
  %86 = getelementptr inbounds float, ptr %83, i64 %85
  %87 = load float, ptr %86, align 4, !tbaa !66
  %88 = fsub nsz float %82, %87
  br label %102

89:                                               ; preds = %63
  %90 = load ptr, ptr %11, align 8, !tbaa !64
  %91 = load i32, ptr %15, align 4, !tbaa !44
  %92 = sext i32 %91 to i64
  %93 = getelementptr inbounds float, ptr %90, i64 %92
  %94 = load float, ptr %93, align 4, !tbaa !66
  %95 = load ptr, ptr %12, align 8, !tbaa !64
  %96 = load i32, ptr %15, align 4, !tbaa !44
  %97 = sext i32 %96 to i64
  %98 = getelementptr inbounds float, ptr %95, i64 %97
  %99 = load float, ptr %98, align 4, !tbaa !66
  %100 = fsub nsz float %94, %99
  %101 = fneg nsz float %100
  br label %102

102:                                              ; preds = %89, %77
  %103 = phi nsz float [ %88, %77 ], [ %101, %89 ]
  %104 = fcmp nsz olt float %64, %103
  br i1 %104, label %105, label %111

105:                                              ; preds = %102
  %106 = load ptr, ptr %13, align 8, !tbaa !64
  %107 = load i32, ptr %15, align 4, !tbaa !44
  %108 = sext i32 %107 to i64
  %109 = getelementptr inbounds float, ptr %106, i64 %108
  %110 = load float, ptr %109, align 4, !tbaa !66
  br label %117

111:                                              ; preds = %102
  %112 = load ptr, ptr %12, align 8, !tbaa !64
  %113 = load i32, ptr %15, align 4, !tbaa !44
  %114 = sext i32 %113 to i64
  %115 = getelementptr inbounds float, ptr %112, i64 %114
  %116 = load float, ptr %115, align 4, !tbaa !66
  br label %117

117:                                              ; preds = %111, %105
  %118 = phi nsz float [ %110, %105 ], [ %116, %111 ]
  %119 = load ptr, ptr %14, align 8, !tbaa !64
  %120 = load i32, ptr %15, align 4, !tbaa !44
  %121 = sext i32 %120 to i64
  %122 = getelementptr inbounds float, ptr %119, i64 %121
  store float %118, ptr %122, align 4, !tbaa !66
  br label %123

123:                                              ; preds = %117
  %124 = load i32, ptr %15, align 4, !tbaa !44
  %125 = add nsw i32 %124, 1
  store i32 %125, ptr %15, align 4, !tbaa !44
  br label %20, !llvm.loop !68

126:                                              ; preds = %24
  call void @llvm.lifetime.end.p0(i64 8, ptr %14) #9
  call void @llvm.lifetime.end.p0(i64 8, ptr %13) #9
  call void @llvm.lifetime.end.p0(i64 8, ptr %12) #9
  call void @llvm.lifetime.end.p0(i64 8, ptr %11) #9
  ret void
}